; Function Attrs: nounwind uwtable
define ptr @initialize_Init_Data_Vector_MapIdx(i8 noundef zeroext %0, ptr noundef readnone captures(none) %1) local_unnamed_addr #0 {
  %.b20 = load i1, ptr @_G_initialized, align 1
  br i1 %.b20, label %3, label %10

3:                                                ; preds = %2
  tail call void @lean_inc_heartbeat() #4
  %4 = tail call noalias ptr @mi_malloc_small(i64 noundef 24) #4
  %5 = icmp eq ptr %4, null
  br i1 %5, label %6, label %lean_io_result_mk_ok.exit

6:                                                ; preds = %3
  tail call void @lean_internal_panic_out_of_memory() #5
  unreachable

lean_io_result_mk_ok.exit:                        ; preds = %3
  %7 = getelementptr inbounds nuw i8, ptr %4, i64 4
  store i32 1, ptr %4, align 4, !tbaa !5
  store i32 131096, ptr %7, align 4
  %8 = getelementptr inbounds nuw i8, ptr %4, i64 8
  store ptr inttoptr (i64 1 to ptr), ptr %8, align 8, !tbaa !11
  %9 = getelementptr inbounds nuw i8, ptr %4, i64 16
  store ptr inttoptr (i64 1 to ptr), ptr %9, align 8, !tbaa !11
  br label %62

10:                                               ; preds = %2
  store i1 true, ptr @_G_initialized, align 1
  %11 = tail call ptr @initialize_Init_Data_Array_MapIdx(i8 noundef zeroext %0, ptr noundef nonnull inttoptr (i64 1 to ptr)) #4
  %12 = getelementptr i8, ptr %11, i64 4
  %.val = load i32, ptr %12, align 4
  %.mask.i = and i32 %.val, -16777216
  %13 = icmp eq i32 %.mask.i, 16777216
  br i1 %13, label %62, label %14

14:                                               ; preds = %10
  %15 = load i32, ptr %11, align 4, !tbaa !5
  %16 = icmp sgt i32 %15, 1
  br i1 %16, label %17, label %19, !prof !10

17:                                               ; preds = %14
  %18 = add nsw i32 %15, -1
  store i32 %18, ptr %11, align 4, !tbaa !5
  br label %lean_dec_ref.exit

19:                                               ; preds = %14
  %.not.i = icmp eq i32 %15, 0
  br i1 %.not.i, label %lean_dec_ref.exit, label %20

20:                                               ; preds = %19
  tail call void @lean_dec_ref_cold(ptr noundef nonnull %11) #4
  br label %lean_dec_ref.exit

lean_dec_ref.exit:                                ; preds = %17, %19, %20
  %21 = tail call ptr @initialize_Init_Data_Array_Basic(i8 noundef zeroext %0, ptr noundef nonnull inttoptr (i64 1 to ptr)) #4
  %22 = getelementptr i8, ptr %21, i64 4
  %.val29 = load i32, ptr %22, align 4
  %.mask.i33 = and i32 %.val29, -16777216
  %23 = icmp eq i32 %.mask.i33, 16777216
  br i1 %23, label %62, label %24

24:                                               ; preds = %lean_dec_ref.exit
  %25 = load i32, ptr %21, align 4, !tbaa !5
  %26 = icmp sgt i32 %25, 1
  br i1 %26, label %27, label %29, !prof !10

27:                                               ; preds = %24
  %28 = add nsw i32 %25, -1
  store i32 %28, ptr %21, align 4, !tbaa !5
  br label %lean_dec_ref.exit22

29:                                               ; preds = %24
  %.not.i21 = icmp eq i32 %25, 0
  br i1 %.not.i21, label %lean_dec_ref.exit22, label %30

30:                                               ; preds = %29
  tail call void @lean_dec_ref_cold(ptr noundef nonnull %21) #4
  br label %lean_dec_ref.exit22

lean_dec_ref.exit22:                              ; preds = %27, %29, %30
  %31 = tail call ptr @initialize_Init_Data_Vector_Basic(i8 noundef zeroext %0, ptr noundef nonnull inttoptr (i64 1 to ptr)) #4
  %32 = getelementptr i8, ptr %31, i64 4
  %.val30 = load i32, ptr %32, align 4
  %.mask.i34 = and i32 %.val30, -16777216
  %33 = icmp eq i32 %.mask.i34, 16777216
  br i1 %33, label %62, label %34

34:                                               ; preds = %lean_dec_ref.exit22
  %35 = load i32, ptr %31, align 4, !tbaa !5
  %36 = icmp sgt i32 %35, 1
  br i1 %36, label %37, label %39, !prof !10

37:                                               ; preds = %34
  %38 = add nsw i32 %35, -1
  store i32 %38, ptr %31, align 4, !tbaa !5
  br label %lean_dec_ref.exit24

39:                                               ; preds = %34
  %.not.i23 = icmp eq i32 %35, 0
  br i1 %.not.i23, label %lean_dec_ref.exit24, label %40

40:                                               ; preds = %39
  tail call void @lean_dec_ref_cold(ptr noundef nonnull %31) #4
  br label %lean_dec_ref.exit24

lean_dec_ref.exit24:                              ; preds = %37, %39, %40
  %41 = tail call ptr @initialize_Init_Data_Vector_Attach(i8 noundef zeroext %0, ptr noundef nonnull inttoptr (i64 1 to ptr)) #4
  %42 = getelementptr i8, ptr %41, i64 4
  %.val31 = load i32, ptr %42, align 4
  %.mask.i35 = and i32 %.val31, -16777216
  %43 = icmp eq i32 %.mask.i35, 16777216
  br i1 %43, label %62, label %44

44:                                               ; preds = %lean_dec_ref.exit24
  %45 = load i32, ptr %41, align 4, !tbaa !5
  %46 = icmp sgt i32 %45, 1
  br i1 %46, label %47, label %49, !prof !10

47:                                               ; preds = %44
  %48 = add nsw i32 %45, -1
  store i32 %48, ptr %41, align 4, !tbaa !5
  br label %lean_dec_ref.exit26

49:                                               ; preds = %44
  %.not.i25 = icmp eq i32 %45, 0
  br i1 %.not.i25, label %lean_dec_ref.exit26, label %50

50:                                               ; preds = %49
  tail call void @lean_dec_ref_cold(ptr noundef nonnull %41) #4
  br label %lean_dec_ref.exit26

lean_dec_ref.exit26:                              ; preds = %47, %49, %50
  %51 = tail call ptr @initialize_Init_Data_Vector_Lemmas(i8 noundef zeroext %0, ptr noundef nonnull inttoptr (i64 1 to ptr)) #4
  %52 = getelementptr i8, ptr %51, i64 4
  %.val32 = load i32, ptr %52, align 4
  %.mask.i36 = and i32 %.val32, -16777216
  %53 = icmp eq i32 %.mask.i36, 16777216
  br i1 %53, label %62, label %54

54:                                               ; preds = %lean_dec_ref.exit26
  %55 = load i32, ptr %51, align 4, !tbaa !5
  %56 = icmp sgt i32 %55, 1
  br i1 %56, label %57, label %59, !prof !10

57:                                               ; preds = %54
  %58 = add nsw i32 %55, -1
  store i32 %58, ptr %51, align 4, !tbaa !5
  br label %lean_dec_ref.exit28

59:                                               ; preds = %54
  %.not.i27 = icmp eq i32 %55, 0
  br i1 %.not.i27, label %lean_dec_ref.exit28, label %60

60:                                               ; preds = %59
  tail call void @lean_dec_ref_cold(ptr noundef nonnull %51) #4
  br label %lean_dec_ref.exit28

lean_dec_ref.exit28:                              ; preds = %57, %59, %60
  %61 = tail call fastcc ptr @lean_io_result_mk_ok(ptr noundef nonnull inttoptr (i64 1 to ptr))
  br label %62

62:                                               ; preds = %lean_dec_ref.exit26, %lean_dec_ref.exit24, %lean_dec_ref.exit22, %lean_dec_ref.exit, %10, %lean_dec_ref.exit28, %lean_io_result_mk_ok.exit
  %.0 = phi ptr [ %4, %lean_io_result_mk_ok.exit ], [ %61, %lean_dec_ref.exit28 ], [ %11, %10 ], [ %21, %lean_dec_ref.exit ], [ %31, %lean_dec_ref.exit22 ], [ %41, %lean_dec_ref.exit24 ], [ %51, %lean_dec_ref.exit26 ]
  ret ptr %.0
}